target datalayout = "e-m:e-p270:32:32-p271:32:32-p272:64:64-i64:64-i128:128-f80:128-n8:16:32:64-S128"
target triple = "x86_64-pc-linux-gnu"

@to_timestamp = internal global i64 0, align 8
@.str.56 = private unnamed_addr constant [3 x i8] c"-v\00", align 1
@.str.57 = private unnamed_addr constant [10 x i8] c"--version\00", align 1
@.str.58 = private unnamed_addr constant [20 x i8] c"redis-check-aof %s\0A\00", align 1
@.str.59 = private unnamed_addr constant [6 x i8] c"--fix\00", align 1
@.str.60 = private unnamed_addr constant [24 x i8] c"--truncate-to-timestamp\00", align 1
@.str.61 = private unnamed_addr constant [32 x i8] c"Invalid timestamp, aborting...\0A\00", align 1
@.str.62 = private unnamed_addr constant [79 x i8] c"Usage: %s [--fix|--truncate-to-timestamp $timestamp] <file.manifest|file.aof>\0A\00", align 1

; Function Attrs: nounwind uwtable
define dso_local i32 @getInputFileType(ptr noundef %0) #0 {
  %2 = alloca i32, align 4
  %3 = alloca ptr, align 8
  store ptr %0, ptr %3, align 8, !tbaa !5
  %4 = load ptr, ptr %3, align 8, !tbaa !5
  %5 = call i32 @fileIsManifest(ptr noundef %4)
  %6 = icmp ne i32 %5, 0
  br i1 %6, label %7, label %8

7:                                                ; preds = %1
  store i32 2, ptr %2, align 4
  br label %14

8:                                                ; preds = %1
  %9 = load ptr, ptr %3, align 8, !tbaa !5
  %10 = call i32 @fileIsRDB(ptr noundef %9)
  %11 = icmp ne i32 %10, 0
  br i1 %11, label %12, label %13

12:                                               ; preds = %8
  store i32 1, ptr %2, align 4
  br label %14

13:                                               ; preds = %8
  store i32 0, ptr %2, align 4
  br label %14

14:                                               ; preds = %13, %12, %7
  %15 = load i32, ptr %2, align 4
  ret i32 %15
}

; Function Attrs: nounwind uwtable
define dso_local i32 @redis_check_aof_main(i32 noundef %0, ptr noundef %1) #0 {
  %3 = alloca i32, align 4
  %4 = alloca ptr, align 8
  %5 = alloca ptr, align 8
  %6 = alloca [4097 x i8], align 16
  %7 = alloca ptr, align 8
  %8 = alloca i32, align 4
  %9 = alloca ptr, align 8
  %10 = alloca ptr, align 8
  %11 = alloca i32, align 4
  store i32 %0, ptr %3, align 4, !tbaa !23
  store ptr %1, ptr %4, align 8, !tbaa !19
  call void @llvm.lifetime.start.p0(i64 8, ptr %5) #10
  call void @llvm.lifetime.start.p0(i64 4097, ptr %6) #10
  call void @llvm.lifetime.start.p0(i64 8, ptr %7) #10
  call void @llvm.lifetime.start.p0(i64 4, ptr %8) #10
  store i32 0, ptr %8, align 4, !tbaa !23
  %12 = load i32, ptr %3, align 4, !tbaa !23
  %13 = icmp slt i32 %12, 2
  br i1 %13, label %14, label %15

14:                                               ; preds = %2
  br label %111

15:                                               ; preds = %2
  %16 = load i32, ptr %3, align 4, !tbaa !23
  %17 = icmp eq i32 %16, 2
  br i1 %17, label %18, label %39

18:                                               ; preds = %15
  %19 = load ptr, ptr %4, align 8, !tbaa !19
  %20 = getelementptr inbounds ptr, ptr %19, i64 1
  %21 = load ptr, ptr %20, align 8, !tbaa !5
  %22 = call i32 @strcmp(ptr noundef %21, ptr noundef @.str.56) #9
  %23 = icmp ne i32 %22, 0
  br i1 %23, label %24, label %30

24:                                               ; preds = %18
  %25 = load ptr, ptr %4, align 8, !tbaa !19
  %26 = getelementptr inbounds ptr, ptr %25, i64 1
  %27 = load ptr, ptr %26, align 8, !tbaa !5
  %28 = call i32 @strcmp(ptr noundef %27, ptr noundef @.str.57) #9
  %29 = icmp ne i32 %28, 0
  br i1 %29, label %35, label %30

30:                                               ; preds = %24, %18
  call void @llvm.lifetime.start.p0(i64 8, ptr %9) #10
  %31 = call ptr @getVersion()
  store ptr %31, ptr %9, align 8, !tbaa !5
  %32 = load ptr, ptr %9, align 8, !tbaa !5
  %33 = call i32 (ptr, ...) @printf(ptr noundef @.str.58, ptr noundef %32)
  %34 = load ptr, ptr %9, align 8, !tbaa !5
  call void @sdsfree(ptr noundef %34)
  call void @exit(i32 noundef 0) #12
  unreachable

35:                                               ; preds = %24
  %36 = load ptr, ptr %4, align 8, !tbaa !19
  %37 = getelementptr inbounds ptr, ptr %36, i64 1
  %38 = load ptr, ptr %37, align 8, !tbaa !5
  store ptr %38, ptr %5, align 8, !tbaa !5
  br label %88

39:                                               ; preds = %15
  %40 = load i32, ptr %3, align 4, !tbaa !23
  %41 = icmp eq i32 %40, 3
  br i1 %41, label %42, label %54

42:                                               ; preds = %39
  %43 = load ptr, ptr %4, align 8, !tbaa !19
  %44 = getelementptr inbounds ptr, ptr %43, i64 1
  %45 = load ptr, ptr %44, align 8, !tbaa !5
  %46 = call i32 @strcmp(ptr noundef %45, ptr noundef @.str.59) #9
  %47 = icmp ne i32 %46, 0
  br i1 %47, label %52, label %48

48:                                               ; preds = %42
  %49 = load ptr, ptr %4, align 8, !tbaa !19
  %50 = getelementptr inbounds ptr, ptr %49, i64 2
  %51 = load ptr, ptr %50, align 8, !tbaa !5
  store ptr %51, ptr %5, align 8, !tbaa !5
  store i32 1, ptr %8, align 4, !tbaa !23
  br label %53

52:                                               ; preds = %42
  br label %111

53:                                               ; preds = %48
  br label %87

54:                                               ; preds = %39
  %55 = load i32, ptr %3, align 4, !tbaa !23
  %56 = icmp eq i32 %55, 4
  br i1 %56, label %57, label %85

57:                                               ; preds = %54
  %58 = load ptr, ptr %4, align 8, !tbaa !19
  %59 = getelementptr inbounds ptr, ptr %58, i64 1
  %60 = load ptr, ptr %59, align 8, !tbaa !5
  %61 = call i32 @strcmp(ptr noundef %60, ptr noundef @.str.60) #9
  %62 = icmp ne i32 %61, 0
  br i1 %62, label %83, label %63

63:                                               ; preds = %57
  call void @llvm.lifetime.start.p0(i64 8, ptr %10) #10
  %64 = call ptr @__errno_location() #13
  store i32 0, ptr %64, align 4, !tbaa !23
  %65 = load ptr, ptr %4, align 8, !tbaa !19
  %66 = getelementptr inbounds ptr, ptr %65, i64 2
  %67 = load ptr, ptr %66, align 8, !tbaa !5
  %68 = call i64 @strtol(ptr noundef %67, ptr noundef %10, i32 noundef 10) #10
  store i64 %68, ptr @to_timestamp, align 8, !tbaa !11
  %69 = call ptr @__errno_location() #13
  %70 = load i32, ptr %69, align 4, !tbaa !23
  %71 = icmp ne i32 %70, 0
  br i1 %71, label %77, label %72

72:                                               ; preds = %63
  %73 = load ptr, ptr %10, align 8, !tbaa !5
  %74 = load i8, ptr %73, align 1, !tbaa !10
  %75 = sext i8 %74 to i32
  %76 = icmp ne i32 %75, 0
  br i1 %76, label %77, label %79

77:                                               ; preds = %72, %63
  %78 = call i32 (ptr, ...) @printf(ptr noundef @.str.61)
  call void @exit(i32 noundef 1) #12
  unreachable

79:                                               ; preds = %72
  %80 = load ptr, ptr %4, align 8, !tbaa !19
  %81 = getelementptr inbounds ptr, ptr %80, i64 3
  %82 = load ptr, ptr %81, align 8, !tbaa !5
  store ptr %82, ptr %5, align 8, !tbaa !5
  call void @llvm.lifetime.end.p0(i64 8, ptr %10) #10
  br label %84

83:                                               ; preds = %57
  br label %111

84:                                               ; preds = %79
  br label %86

85:                                               ; preds = %54
  br label %111

86:                                               ; preds = %84
  br label %87

87:                                               ; preds = %86, %53
  br label %88

88:                                               ; preds = %87, %35
  br label %89

89:                                               ; preds = %88
  %90 = getelementptr inbounds [4097 x i8], ptr %6, i64 0, i64 0
  %91 = load ptr, ptr %5, align 8, !tbaa !5
  %92 = load ptr, ptr %5, align 8, !tbaa !5
  %93 = call i64 @strlen(ptr noundef %92) #9
  %94 = add i64 %93, 1
  call void @llvm.memcpy.p0.p0.i64(ptr align 16 %90, ptr align 1 %91, i64 %94, i1 false)
  %95 = getelementptr inbounds [4097 x i8], ptr %6, i64 0, i64 0
  %96 = call ptr @dirname(ptr noundef %95) #10
  store ptr %96, ptr %7, align 8, !tbaa !5
  %97 = load ptr, ptr %5, align 8, !tbaa !5
  %98 = call i32 @getInputFileType(ptr noundef %97)
  store i32 %98, ptr %11, align 4, !tbaa !23
  %99 = load i32, ptr %11, align 4, !tbaa !23
  switch i32 %99, label %110 [
    i32 2, label %100
    i32 0, label %104
    i32 1, label %107
  ]

100:                                              ; preds = %89
  %101 = load ptr, ptr %7, align 8, !tbaa !5
  %102 = load ptr, ptr %5, align 8, !tbaa !5
  %103 = load i32, ptr %8, align 4, !tbaa !23
  call void @checkMultiPartAof(ptr noundef %101, ptr noundef %102, i32 noundef %103)
  br label %110

104:                                              ; preds = %89
  %105 = load ptr, ptr %5, align 8, !tbaa !5
  %106 = load i32, ptr %8, align 4, !tbaa !23
  call void @checkOldStyleAof(ptr noundef %105, i32 noundef %106, i32 noundef 0)
  br label %110

107:                                              ; preds = %89
  %108 = load ptr, ptr %5, align 8, !tbaa !5
  %109 = load i32, ptr %8, align 4, !tbaa !23
  call void @checkOldStyleAof(ptr noundef %108, i32 noundef %109, i32 noundef 1)
  br label %110

110:                                              ; preds = %89, %107, %104, %100
  call void @exit(i32 noundef 0) #12
  unreachable

111:                                              ; preds = %85, %83, %52, %14
  %112 = load ptr, ptr %4, align 8, !tbaa !19
  %113 = getelementptr inbounds ptr, ptr %112, i64 0
  %114 = load ptr, ptr %113, align 8, !tbaa !5
  %115 = call i32 (ptr, ...) @printf(ptr noundef @.str.62, ptr noundef %114)
  call void @exit(i32 noundef 1) #12
  unreachable
}