; Function Attrs: noreturn nounwind uwtable
define dso_local noundef i32 @redis_check_aof_main(i32 noundef %0, ptr noundef readonly captures(none) %1) local_unnamed_addr #12 {
  %3 = alloca [4097 x i8], align 16
  %4 = alloca ptr, align 8
  call void @llvm.lifetime.start.p0(i64 4097, ptr nonnull %3) #16
  %5 = icmp slt i32 %0, 2
  br i1 %5, label %52, label %6

6:                                                ; preds = %2
  switch i32 %0, label %52 [
    i32 2, label %sub_0
    i32 3, label %19
    i32 4, label %26
  ]

sub_0:                                            ; preds = %6
  %7 = getelementptr inbounds nuw i8, ptr %1, i64 8
  %8 = load ptr, ptr %7, align 8, !tbaa !12
  %9 = load i8, ptr %8, align 1
  %.not33 = icmp eq i8 %9, 45
  br i1 %.not33, label %sub_1, label %.tail.thread

sub_1:                                            ; preds = %sub_0
  %10 = getelementptr inbounds nuw i8, ptr %8, i64 1
  %11 = load i8, ptr %10, align 1
  %.not34 = icmp eq i8 %11, 118
  br i1 %.not34, label %.tail, label %.tail.thread

.tail:                                            ; preds = %sub_1
  %12 = getelementptr inbounds nuw i8, ptr %8, i64 2
  %13 = load i8, ptr %12, align 1
  %14 = icmp eq i8 %13, 0
  br i1 %14, label %16, label %.tail.thread

.tail.thread:                                     ; preds = %sub_1, %sub_0, %.tail
  %15 = tail call i32 @strcmp(ptr noundef nonnull dereferenceable(1) %8, ptr noundef nonnull dereferenceable(10) @.str.57) #18
  %.not31 = icmp eq i32 %15, 0
  br i1 %.not31, label %16, label %43

16:                                               ; preds = %.tail.thread, %.tail
  %17 = tail call ptr @getVersion() #16
  %18 = tail call i32 (ptr, ...) @printf(ptr noundef nonnull dereferenceable(1) @.str.58, ptr noundef %17)
  tail call void @sdsfree(ptr noundef %17) #16
  tail call void @exit(i32 noundef 0) #21
  unreachable

19:                                               ; preds = %6
  %20 = getelementptr inbounds nuw i8, ptr %1, i64 8
  %21 = load ptr, ptr %20, align 8, !tbaa !12
  %22 = tail call i32 @strcmp(ptr noundef nonnull dereferenceable(1) %21, ptr noundef nonnull dereferenceable(6) @.str.59) #18
  %.not29 = icmp eq i32 %22, 0
  br i1 %.not29, label %23, label %52

23:                                               ; preds = %19
  %24 = getelementptr inbounds nuw i8, ptr %1, i64 16
  %25 = load ptr, ptr %24, align 8, !tbaa !12
  br label %43

26:                                               ; preds = %6
  %27 = getelementptr inbounds nuw i8, ptr %1, i64 8
  %28 = load ptr, ptr %27, align 8, !tbaa !12
  %29 = tail call i32 @strcmp(ptr noundef nonnull dereferenceable(1) %28, ptr noundef nonnull dereferenceable(24) @.str.60) #18
  %.not = icmp eq i32 %29, 0
  br i1 %.not, label %30, label %52

30:                                               ; preds = %26
  call void @llvm.lifetime.start.p0(i64 8, ptr nonnull %4) #16
  %31 = tail call ptr @__errno_location() #20
  store i32 0, ptr %31, align 4, !tbaa !15
  %32 = getelementptr inbounds nuw i8, ptr %1, i64 16
  %33 = load ptr, ptr %32, align 8, !tbaa !12
  %34 = call i64 @strtol(ptr noundef %33, ptr noundef nonnull %4, i32 noundef 10) #16
  store i64 %34, ptr @to_timestamp, align 8, !tbaa !8
  %35 = load i32, ptr %31, align 4, !tbaa !15
  %.not27 = icmp eq i32 %35, 0
  br i1 %.not27, label %36, label %39

36:                                               ; preds = %30
  %37 = load ptr, ptr %4, align 8, !tbaa !12
  %38 = load i8, ptr %37, align 1, !tbaa !5
  %.not28 = icmp eq i8 %38, 0
  br i1 %.not28, label %40, label %39

39:                                               ; preds = %36, %30
  %puts = tail call i32 @puts(ptr nonnull dereferenceable(1) @str.9)
  tail call void @exit(i32 noundef 1) #19
  unreachable

40:                                               ; preds = %36
  %41 = getelementptr inbounds nuw i8, ptr %1, i64 24
  %42 = load ptr, ptr %41, align 8, !tbaa !12
  call void @llvm.lifetime.end.p0(i64 8, ptr nonnull %4) #16
  br label %43

43:                                               ; preds = %.tail.thread, %40, %23
  %.025 = phi i32 [ 1, %23 ], [ 0, %40 ], [ 0, %.tail.thread ]
  %.0 = phi ptr [ %25, %23 ], [ %42, %40 ], [ %8, %.tail.thread ]
  %44 = tail call i64 @strlen(ptr noundef nonnull dereferenceable(1) %.0) #18
  %45 = add i64 %44, 1
  call void @llvm.memcpy.p0.p0.i64(ptr nonnull align 16 %3, ptr nonnull align 1 %.0, i64 %45, i1 false)
  %46 = call ptr @dirname(ptr noundef nonnull %3) #16
  %47 = call i32 @fileIsManifest(ptr noundef nonnull %.0)
  %.not.i = icmp eq i32 %47, 0
  br i1 %.not.i, label %getInputFileType.exit, label %getInputFileType.exit.thread

getInputFileType.exit:                            ; preds = %43
  %48 = call i32 @fileIsRDB(ptr noundef nonnull %.0)
  %switch.not = icmp eq i32 %48, 0
  br i1 %switch.not, label %49, label %50

getInputFileType.exit.thread:                     ; preds = %43
  call void @checkMultiPartAof(ptr noundef %46, ptr noundef nonnull %.0, i32 noundef %.025)
  br label %51

49:                                               ; preds = %getInputFileType.exit
  call void @checkOldStyleAof(ptr noundef nonnull %.0, i32 noundef %.025, i32 noundef 0)
  br label %51

50:                                               ; preds = %getInputFileType.exit
  call void @checkOldStyleAof(ptr noundef nonnull %.0, i32 noundef %.025, i32 noundef 1)
  br label %51

51:                                               ; preds = %50, %49, %getInputFileType.exit.thread
  call void @exit(i32 noundef 0) #21
  unreachable

52:                                               ; preds = %6, %26, %19, %2
  %53 = load ptr, ptr %1, align 8, !tbaa !12
  %54 = tail call i32 (ptr, ...) @printf(ptr noundef nonnull dereferenceable(1) @.str.62, ptr noundef %53)
  tail call void @exit(i32 noundef 1) #19
  unreachable
}